; Function Attrs: mustprogress uwtable
define noundef zeroext i1 @_ZNK4lean4name13is_safe_asciiEv(ptr noundef nonnull readonly align 8 captures(none) dereferenceable(8) %0) local_unnamed_addr #1 align 2 {
  %.08 = load ptr, ptr %0, align 8, !tbaa !26
  %2 = ptrtoint ptr %.08 to i64
  %3 = and i64 %2, 1
  %.not = icmp eq i64 %3, 0
  br i1 %.not, label %_ZN4lean4name4kindEP11lean_object.exit, label %._crit_edge

_ZN4lean4name4kindEP11lean_object.exit:           ; preds = %1, %13
  %.09 = phi ptr [ %.0, %13 ], [ %.08, %1 ]
  %4 = getelementptr i8, ptr %.09, i64 4
  %.val.i.i.i = load i32, ptr %4, align 4
  %.mask = and i32 %.val.i.i.i, -16777216
  %5 = icmp eq i32 %.mask, 16777216
  br i1 %5, label %6, label %13

6:                                                ; preds = %_ZN4lean4name4kindEP11lean_object.exit
  %7 = getelementptr inbounds nuw i8, ptr %.09, i64 16
  %8 = load ptr, ptr %7, align 8, !tbaa !6
  %9 = getelementptr inbounds nuw i8, ptr %8, i64 32
  %10 = getelementptr i8, ptr %8, i64 8
  %.val.i.i = load i64, ptr %10, align 8, !tbaa !33
  %11 = add i64 %.val.i.i, -1
  %12 = tail call noundef zeroext i1 @_ZN4lean13is_safe_asciiEPKcm(ptr noundef nonnull %9, i64 noundef %11)
  br i1 %12, label %13, label %._crit_edge

13:                                               ; preds = %6, %_ZN4lean4name4kindEP11lean_object.exit
  %14 = getelementptr inbounds nuw i8, ptr %.09, i64 8
  %.0 = load ptr, ptr %14, align 8, !tbaa !26
  %15 = ptrtoint ptr %.0 to i64
  %16 = and i64 %15, 1
  %.not12 = icmp eq i64 %16, 0
  br i1 %.not12, label %_ZN4lean4name4kindEP11lean_object.exit, label %._crit_edge, !llvm.loop !43

._crit_edge:                                      ; preds = %6, %13, %1
  %.lcssa = phi i1 [ true, %1 ], [ true, %13 ], [ false, %6 ]
  ret i1 %.lcssa
}